; Function Attrs: nounwind uwtable
define void @Abc_NodeMffcSimulate(ptr noundef readonly captures(none) %0, i32 noundef %1, ptr noundef readonly captures(none) %2, ptr noundef captures(none) initializes((4, 8)) %3) local_unnamed_addr #0 {
  %5 = getelementptr inbounds nuw i8, ptr %3, i64 4
  store i32 0, ptr %5, align 4
  %6 = icmp sgt i32 %1, 0
  br i1 %6, label %.lr.ph, label %.critedge.preheader

.lr.ph:                                           ; preds = %4
  %7 = getelementptr i8, ptr %0, i64 8
  %8 = getelementptr i8, ptr %2, i64 8
  %.phi.trans.insert.i = getelementptr inbounds nuw i8, ptr %3, i64 8
  %wide.trip.count = zext nneg i32 %1 to i64
  br label %13

.critedge.preheader:                              ; preds = %Vec_IntPush.exit, %4
  %9 = getelementptr i8, ptr %0, i64 4
  %.val50 = load i32, ptr %9, align 4
  %10 = icmp slt i32 %1, %.val50
  br i1 %10, label %.lr.ph52, label %.critedge2

.lr.ph52:                                         ; preds = %.critedge.preheader
  %11 = getelementptr i8, ptr %0, i64 8
  %.phi.trans.insert.i43 = getelementptr inbounds nuw i8, ptr %3, i64 8
  %12 = sext i32 %1 to i64
  br label %49

13:                                               ; preds = %.lr.ph, %Vec_IntPush.exit
  %indvars.iv = phi i64 [ 0, %.lr.ph ], [ %indvars.iv.next, %Vec_IntPush.exit ]
  %.val34 = load ptr, ptr %7, align 8
  %14 = getelementptr inbounds nuw ptr, ptr %.val34, i64 %indvars.iv
  %15 = load ptr, ptr %14, align 8
  %.val35 = load ptr, ptr %8, align 8
  %16 = getelementptr inbounds nuw i32, ptr %.val35, i64 %indvars.iv
  %17 = load i32, ptr %16, align 4
  %18 = zext i32 %17 to i64
  %19 = inttoptr i64 %18 to ptr
  %20 = getelementptr inbounds nuw i8, ptr %15, i64 56
  store ptr %19, ptr %20, align 8
  %21 = load i32, ptr %5, align 4
  %22 = load i32, ptr %3, align 8
  %23 = icmp eq i32 %21, %22
  br i1 %23, label %24, label %.Vec_IntGrow.exit10_crit_edge.i

.Vec_IntGrow.exit10_crit_edge.i:                  ; preds = %13
  %.pre.i = load ptr, ptr %.phi.trans.insert.i, align 8
  br label %Vec_IntPush.exit

24:                                               ; preds = %13
  %25 = icmp slt i32 %21, 16
  br i1 %25, label %26, label %33

26:                                               ; preds = %24
  %27 = load ptr, ptr %.phi.trans.insert.i, align 8
  %.not9.i.i = icmp eq ptr %27, null
  br i1 %.not9.i.i, label %30, label %28

28:                                               ; preds = %26
  %29 = tail call dereferenceable_or_null(64) ptr @realloc(ptr noundef nonnull %27, i64 noundef 64) #20
  br label %Vec_IntGrow.exit.i

30:                                               ; preds = %26
  %31 = tail call noalias dereferenceable_or_null(64) ptr @malloc(i64 noundef 64) #21
  br label %Vec_IntGrow.exit.i

Vec_IntGrow.exit.i:                               ; preds = %30, %28
  %32 = phi ptr [ %29, %28 ], [ %31, %30 ]
  store ptr %32, ptr %.phi.trans.insert.i, align 8
  store i32 16, ptr %3, align 8
  br label %Vec_IntPush.exit

33:                                               ; preds = %24
  %34 = shl nuw nsw i32 %21, 1
  %35 = load ptr, ptr %.phi.trans.insert.i, align 8
  %.not9.i9.i = icmp eq ptr %35, null
  %36 = zext nneg i32 %34 to i64
  %37 = shl nuw nsw i64 %36, 2
  br i1 %.not9.i9.i, label %40, label %38

38:                                               ; preds = %33
  %39 = tail call ptr @realloc(ptr noundef nonnull %35, i64 noundef %37) #20
  br label %42

40:                                               ; preds = %33
  %41 = tail call noalias ptr @malloc(i64 noundef %37) #21
  br label %42

42:                                               ; preds = %40, %38
  %43 = phi ptr [ %39, %38 ], [ %41, %40 ]
  store ptr %43, ptr %.phi.trans.insert.i, align 8
  store i32 %34, ptr %3, align 8
  br label %Vec_IntPush.exit

Vec_IntPush.exit:                                 ; preds = %.Vec_IntGrow.exit10_crit_edge.i, %Vec_IntGrow.exit.i, %42
  %44 = phi ptr [ %.pre.i, %.Vec_IntGrow.exit10_crit_edge.i ], [ %43, %42 ], [ %32, %Vec_IntGrow.exit.i ]
  %45 = load i32, ptr %5, align 4
  %46 = add nsw i32 %45, 1
  store i32 %46, ptr %5, align 4
  %47 = sext i32 %45 to i64
  %48 = getelementptr inbounds i32, ptr %44, i64 %47
  store i32 %17, ptr %48, align 4
  %indvars.iv.next = add nuw nsw i64 %indvars.iv, 1
  %exitcond.not = icmp eq i64 %indvars.iv.next, %wide.trip.count
  br i1 %exitcond.not, label %.critedge.preheader, label %13, !llvm.loop !30

49:                                               ; preds = %.lr.ph52, %Vec_IntPush.exit48
  %indvars.iv54 = phi i64 [ %12, %.lr.ph52 ], [ %indvars.iv.next55, %Vec_IntPush.exit48 ]
  %.val33 = load ptr, ptr %11, align 8
  %50 = getelementptr inbounds ptr, ptr %.val33, i64 %indvars.iv54
  %51 = load ptr, ptr %50, align 8
  %.val36 = load ptr, ptr %51, align 8
  %52 = getelementptr i8, ptr %51, i64 32
  %.val37 = load ptr, ptr %52, align 8
  %53 = getelementptr i8, ptr %.val36, i64 32
  %.val36.val = load ptr, ptr %53, align 8
  %.val37.val = load i32, ptr %.val37, align 4
  %54 = getelementptr i8, ptr %.val36.val, i64 8
  %.val36.val.val = load ptr, ptr %54, align 8
  %55 = sext i32 %.val37.val to i64
  %56 = getelementptr inbounds ptr, ptr %.val36.val.val, i64 %55
  %57 = load ptr, ptr %56, align 8
  %58 = getelementptr inbounds nuw i8, ptr %57, i64 56
  %59 = load ptr, ptr %58, align 8
  %60 = ptrtoint ptr %59 to i64
  %61 = trunc i64 %60 to i32
  %62 = getelementptr i8, ptr %.val37, i64 4
  %.val39.val = load i32, ptr %62, align 4
  %63 = sext i32 %.val39.val to i64
  %64 = getelementptr inbounds ptr, ptr %.val36.val.val, i64 %63
  %65 = load ptr, ptr %64, align 8
  %66 = getelementptr inbounds nuw i8, ptr %65, i64 56
  %67 = load ptr, ptr %66, align 8
  %68 = ptrtoint ptr %67 to i64
  %69 = trunc i64 %68 to i32
  %70 = getelementptr i8, ptr %51, i64 20
  %.val40 = load i32, ptr %70, align 4
  %71 = shl i32 %.val40, 21
  %72 = ashr i32 %71, 31
  %73 = xor i32 %72, %61
  %74 = shl i32 %.val40, 20
  %75 = ashr i32 %74, 31
  %76 = xor i32 %75, %69
  %77 = and i32 %73, %76
  %78 = zext i32 %77 to i64
  %79 = inttoptr i64 %78 to ptr
  %80 = getelementptr inbounds nuw i8, ptr %51, i64 56
  store ptr %79, ptr %80, align 8
  %81 = load i32, ptr %5, align 4
  %82 = load i32, ptr %3, align 8
  %83 = icmp eq i32 %81, %82
  br i1 %83, label %84, label %.Vec_IntGrow.exit10_crit_edge.i42

.Vec_IntGrow.exit10_crit_edge.i42:                ; preds = %49
  %.pre.i44 = load ptr, ptr %.phi.trans.insert.i43, align 8
  br label %Vec_IntPush.exit48

84:                                               ; preds = %49
  %85 = icmp slt i32 %81, 16
  br i1 %85, label %86, label %93

86:                                               ; preds = %84
  %87 = load ptr, ptr %.phi.trans.insert.i43, align 8
  %.not9.i.i46 = icmp eq ptr %87, null
  br i1 %.not9.i.i46, label %90, label %88

88:                                               ; preds = %86
  %89 = tail call dereferenceable_or_null(64) ptr @realloc(ptr noundef nonnull %87, i64 noundef 64) #20
  br label %Vec_IntGrow.exit.i47

90:                                               ; preds = %86
  %91 = tail call noalias dereferenceable_or_null(64) ptr @malloc(i64 noundef 64) #21
  br label %Vec_IntGrow.exit.i47

Vec_IntGrow.exit.i47:                             ; preds = %90, %88
  %92 = phi ptr [ %89, %88 ], [ %91, %90 ]
  store ptr %92, ptr %.phi.trans.insert.i43, align 8
  store i32 16, ptr %3, align 8
  br label %Vec_IntPush.exit48

93:                                               ; preds = %84
  %94 = shl nuw nsw i32 %81, 1
  %95 = load ptr, ptr %.phi.trans.insert.i43, align 8
  %.not9.i9.i45 = icmp eq ptr %95, null
  %96 = zext nneg i32 %94 to i64
  %97 = shl nuw nsw i64 %96, 2
  br i1 %.not9.i9.i45, label %100, label %98

98:                                               ; preds = %93
  %99 = tail call ptr @realloc(ptr noundef nonnull %95, i64 noundef %97) #20
  br label %102

100:                                              ; preds = %93
  %101 = tail call noalias ptr @malloc(i64 noundef %97) #21
  br label %102

102:                                              ; preds = %100, %98
  %103 = phi ptr [ %99, %98 ], [ %101, %100 ]
  store ptr %103, ptr %.phi.trans.insert.i43, align 8
  store i32 %94, ptr %3, align 8
  br label %Vec_IntPush.exit48

Vec_IntPush.exit48:                               ; preds = %.Vec_IntGrow.exit10_crit_edge.i42, %Vec_IntGrow.exit.i47, %102
  %104 = phi ptr [ %.pre.i44, %.Vec_IntGrow.exit10_crit_edge.i42 ], [ %103, %102 ], [ %92, %Vec_IntGrow.exit.i47 ]
  %105 = load i32, ptr %5, align 4
  %106 = add nsw i32 %105, 1
  store i32 %106, ptr %5, align 4
  %107 = sext i32 %105 to i64
  %108 = getelementptr inbounds i32, ptr %104, i64 %107
  store i32 %77, ptr %108, align 4
  %indvars.iv.next55 = add nsw i64 %indvars.iv54, 1
  %.val = load i32, ptr %9, align 4
  %109 = sext i32 %.val to i64
  %110 = icmp slt i64 %indvars.iv.next55, %109
  br i1 %110, label %49, label %.critedge2, !llvm.loop !31

.critedge2:                                       ; preds = %Vec_IntPush.exit48, %.critedge.preheader
  ret void
}